; Function Attrs: nounwind uwtable
define void @png_set_user_transform_info(ptr noalias noundef %0, ptr noundef %1, i32 noundef %2, i32 noundef %3) local_unnamed_addr #2 {
  %5 = icmp eq ptr %0, null
  br i1 %5, label %21, label %6

6:                                                ; preds = %4
  %7 = getelementptr inbounds i8, ptr %0, i64 300
  %8 = load i32, ptr %7, align 4
  %9 = and i32 %8, 32768
  %.not = icmp eq i32 %9, 0
  br i1 %.not, label %15, label %10

10:                                               ; preds = %6
  %11 = getelementptr inbounds i8, ptr %0, i64 304
  %12 = load i32, ptr %11, align 8
  %13 = and i32 %12, 64
  %.not9 = icmp eq i32 %13, 0
  br i1 %.not9, label %15, label %14

14:                                               ; preds = %10
  tail call void @png_app_error(ptr noundef nonnull %0, ptr noundef nonnull @.str.2) #8
  br label %21

15:                                               ; preds = %10, %6
  %16 = getelementptr inbounds i8, ptr %0, i64 288
  store ptr %1, ptr %16, align 8
  %17 = trunc i32 %2 to i8
  %18 = getelementptr inbounds i8, ptr %0, i64 296
  store i8 %17, ptr %18, align 8
  %19 = trunc i32 %3 to i8
  %20 = getelementptr inbounds i8, ptr %0, i64 297
  store i8 %19, ptr %20, align 1
  br label %21

21:                                               ; preds = %4, %15, %14
  ret void
}